; Function Attrs: nofree nounwind uwtable
define void @Bac_PtrDumpSignalsBlif(ptr noundef captures(none) %0, ptr noundef readonly captures(none) %1, i32 noundef %2) local_unnamed_addr #3 {
  %4 = getelementptr i8, ptr %1, i64 4
  %.val67 = load i32, ptr %4, align 4
  %5 = icmp sgt i32 %.val67, 0
  br i1 %5, label %.lr.ph, label %.critedge

.lr.ph:                                           ; preds = %3
  %6 = getelementptr i8, ptr %1, i64 8
  br label %7

7:                                                ; preds = %.lr.ph, %7
  %indvars.iv = phi i64 [ 0, %.lr.ph ], [ %indvars.iv.next, %7 ]
  %.val = load ptr, ptr %6, align 8
  %8 = getelementptr inbounds nuw ptr, ptr %.val, i64 %indvars.iv
  %9 = load ptr, ptr %8, align 8
  %10 = tail call i32 (ptr, ptr, ...) @fprintf(ptr noundef %0, ptr noundef nonnull @.str, ptr noundef %9) #14
  %indvars.iv.next = add nuw nsw i64 %indvars.iv, 1
  %.val6 = load i32, ptr %4, align 4
  %11 = sext i32 %.val6 to i64
  %12 = icmp slt i64 %indvars.iv.next, %11
  br i1 %12, label %7, label %.critedge, !llvm.loop !9

.critedge:                                        ; preds = %7, %3
  ret void
}